target datalayout = "e-m:e-p270:32:32-p271:32:32-p272:64:64-i64:64-i128:128-f80:128-n8:16:32:64-S128"
target triple = "x86_64-pc-linux-gnu"

%struct.URLContext = type { ptr, ptr, ptr, ptr, i32, i32, i32, i32, %struct.AVIOInterruptCB, i64, ptr, ptr, i32 }
%struct.AVIOInterruptCB = type { ptr, ptr }
%struct.SubfileContext = type { ptr, ptr, i64, i64, i64 }

; Function Attrs: inlinehint nounwind uwtable
define internal i32 @ffurl_read(ptr noundef %0, ptr noundef %1, i32 noundef %2) #3 {
  %4 = alloca ptr, align 8
  %5 = alloca ptr, align 8
  %6 = alloca i32, align 4
  store ptr %0, ptr %4, align 8, !tbaa !4
  store ptr %1, ptr %5, align 8, !tbaa !9
  store i32 %2, ptr %6, align 4, !tbaa !11
  %7 = load ptr, ptr %4, align 8, !tbaa !4
  %8 = load ptr, ptr %5, align 8, !tbaa !9
  %9 = load i32, ptr %6, align 4, !tbaa !11
  %10 = call i32 @ffurl_read2(ptr noundef %7, ptr noundef %8, i32 noundef %9)
  ret i32 %10
}

; Function Attrs: nounwind uwtable
define internal i32 @subfile_read(ptr noundef %0, ptr noundef %1, i32 noundef %2) #0 {
  %4 = alloca i32, align 4
  %5 = alloca ptr, align 8
  %6 = alloca ptr, align 8
  %7 = alloca i32, align 4
  %8 = alloca ptr, align 8
  %9 = alloca i64, align 8
  %10 = alloca i32, align 4
  %11 = alloca i32, align 4
  store ptr %0, ptr %5, align 8, !tbaa !4
  store ptr %1, ptr %6, align 8, !tbaa !9
  store i32 %2, ptr %7, align 4, !tbaa !11
  call void @llvm.lifetime.start.p0(i64 8, ptr %8) #6
  %12 = load ptr, ptr %5, align 8, !tbaa !4
  %13 = getelementptr inbounds nuw %struct.URLContext, ptr %12, i32 0, i32 2
  %14 = load ptr, ptr %13, align 8, !tbaa !16
  store ptr %14, ptr %8, align 8, !tbaa !22
  call void @llvm.lifetime.start.p0(i64 8, ptr %9) #6
  %15 = load ptr, ptr %8, align 8, !tbaa !22
  %16 = getelementptr inbounds nuw %struct.SubfileContext, ptr %15, i32 0, i32 3
  %17 = load i64, ptr %16, align 8, !tbaa !24
  %18 = load ptr, ptr %8, align 8, !tbaa !22
  %19 = getelementptr inbounds nuw %struct.SubfileContext, ptr %18, i32 0, i32 4
  %20 = load i64, ptr %19, align 8, !tbaa !29
  %21 = sub nsw i64 %17, %20
  store i64 %21, ptr %9, align 8, !tbaa !30
  call void @llvm.lifetime.start.p0(i64 4, ptr %10) #6
  %22 = load i64, ptr %9, align 8, !tbaa !30
  %23 = icmp sle i64 %22, 0
  br i1 %23, label %24, label %25

24:                                               ; preds = %3
  store i32 -541478725, ptr %4, align 4
  store i32 1, ptr %11, align 4
  br label %55

25:                                               ; preds = %3
  %26 = load i32, ptr %7, align 4, !tbaa !11
  %27 = sext i32 %26 to i64
  %28 = load i64, ptr %9, align 8, !tbaa !30
  %29 = icmp sgt i64 %27, %28
  br i1 %29, label %30, label %32

30:                                               ; preds = %25
  %31 = load i64, ptr %9, align 8, !tbaa !30
  br label %35

32:                                               ; preds = %25
  %33 = load i32, ptr %7, align 4, !tbaa !11
  %34 = sext i32 %33 to i64
  br label %35

35:                                               ; preds = %32, %30
  %36 = phi i64 [ %31, %30 ], [ %34, %32 ]
  %37 = trunc i64 %36 to i32
  store i32 %37, ptr %7, align 4, !tbaa !11
  %38 = load ptr, ptr %8, align 8, !tbaa !22
  %39 = getelementptr inbounds nuw %struct.SubfileContext, ptr %38, i32 0, i32 1
  %40 = load ptr, ptr %39, align 8, !tbaa !31
  %41 = load ptr, ptr %6, align 8, !tbaa !9
  %42 = load i32, ptr %7, align 4, !tbaa !11
  %43 = call i32 @ffurl_read(ptr noundef %40, ptr noundef %41, i32 noundef %42)
  store i32 %43, ptr %10, align 4, !tbaa !11
  %44 = load i32, ptr %10, align 4, !tbaa !11
  %45 = icmp sge i32 %44, 0
  br i1 %45, label %46, label %53

46:                                               ; preds = %35
  %47 = load i32, ptr %10, align 4, !tbaa !11
  %48 = sext i32 %47 to i64
  %49 = load ptr, ptr %8, align 8, !tbaa !22
  %50 = getelementptr inbounds nuw %struct.SubfileContext, ptr %49, i32 0, i32 4
  %51 = load i64, ptr %50, align 8, !tbaa !29
  %52 = add nsw i64 %51, %48
  store i64 %52, ptr %50, align 8, !tbaa !29
  br label %53

53:                                               ; preds = %46, %35
  %54 = load i32, ptr %10, align 4, !tbaa !11
  store i32 %54, ptr %4, align 4
  store i32 1, ptr %11, align 4
  br label %55

55:                                               ; preds = %53, %24
  call void @llvm.lifetime.end.p0(i64 4, ptr %10) #6
  call void @llvm.lifetime.end.p0(i64 8, ptr %9) #6
  call void @llvm.lifetime.end.p0(i64 8, ptr %8) #6
  %56 = load i32, ptr %4, align 4
  ret i32 %56
}