; Function Attrs: nounwind uwtable
define internal i32 @subfile_read(ptr noundef readonly captures(none) %0, ptr noundef %1, i32 noundef %2) #0 {
  %4 = getelementptr inbounds nuw i8, ptr %0, i64 16
  %5 = load ptr, ptr %4, align 8, !tbaa !9
  %6 = getelementptr inbounds nuw i8, ptr %5, i64 24
  %7 = load i64, ptr %6, align 8, !tbaa !16
  %8 = getelementptr inbounds nuw i8, ptr %5, i64 32
  %9 = load i64, ptr %8, align 8, !tbaa !22
  %10 = sub nsw i64 %7, %9
  %11 = icmp slt i64 %10, 1
  br i1 %11, label %24, label %12

12:                                               ; preds = %3
  %13 = sext i32 %2 to i64
  %14 = tail call i64 @llvm.smin.i64(i64 %10, i64 %13)
  %15 = trunc nsw i64 %14 to i32
  %16 = getelementptr inbounds nuw i8, ptr %5, i64 8
  %17 = load ptr, ptr %16, align 8, !tbaa !23
  %18 = tail call i32 @ffurl_read2(ptr noundef %17, ptr noundef %1, i32 noundef %15) #6
  %19 = icmp sgt i32 %18, -1
  br i1 %19, label %20, label %24

20:                                               ; preds = %12
  %21 = zext nneg i32 %18 to i64
  %22 = load i64, ptr %8, align 8, !tbaa !22
  %23 = add nsw i64 %22, %21
  store i64 %23, ptr %8, align 8, !tbaa !22
  br label %24

24:                                               ; preds = %12, %20, %3
  %.0 = phi i32 [ -541478725, %3 ], [ %18, %20 ], [ %18, %12 ]
  ret i32 %.0
}